Certificate:
    Data:
        Version: 3 (0x2)
        Serial Number: 4552 (0x11c8)
        Signature Algorithm: sha1WithRSAEncryption
        Issuer: C=US, ST=NY, L=New York, O=Bloomberg LP, OU=CTO Office, CN=Bloomberg LP CA/emailAddress=open-tech@bloomberg.net
        Validity
            Not Before: Feb 20 06:00:00 2015 GMT
            Not After : Feb 24 06:00:00 2015 GMT
        Subject: C=US, ST=NY, L=New York, O=Bloomberg LP, OU=CTO Office, CN=stacshack_spring_2015_011/emailAddress=open-tech@bloomberg.net
        Subject Public Key Info:
            Public Key Algorithm: rsaEncryption
            RSA Public Key: (1024 bit)
                Modulus (1024 bit):
                    00:a3:f3:f1:9f:a5:f8:f8:a4:4f:ae:bb:02:de:ca:
                    c1:60:23:ff:57:d4:c2:80:97:11:fd:77:50:67:0a:
                    c6:8d:c6:c1:57:3c:1b:75:04:35:2b:9f:f5:c0:31:
                    51:f8:c6:2f:f0:18:37:dd:46:f5:2e:61:48:ba:66:
                    bf:d0:1e:2e:1d:e8:78:1c:24:f9:1e:48:95:8a:19:
                    e1:6b:96:2f:e7:06:31:84:41:d6:f9:ca:95:a3:c3:
                    b1:23:36:f5:04:8d:b8:5d:9f:b6:4f:1b:d4:69:9e:
                    35:e4:42:1b:25:5e:52:75:bd:1a:d5:97:67:69:85:
                    2b:82:08:6d:80:a6:43:7b:ad
                Exponent: 65537 (0x10001)
        X509v3 extensions:
            X509v3 Basic Constraints: 
                CA:FALSE
            Netscape Comment: 
                Easy-RSA Generated Certificate
            X509v3 Subject Key Identifier: 
                CF:BD:27:70:0A:70:67:FD:03:75:D8:4B:CA:05:4E:70:78:1A:16:50
            X509v3 Authority Key Identifier: 
                keyid:F3:21:76:1F:DA:B5:E7:03:FC:ED:D7:71:B8:1C:55:2D:7E:65:5F:14
                DirName:/C=US/ST=NY/L=New York/O=Bloomberg LP/OU=CTO Office/CN=Bloomberg LP CA/emailAddress=open-tech@bloomberg.net
                serial:81:F3:7A:1C:BC:C6:E8:A2

            X509v3 Extended Key Usage: 
                TLS Web Client Authentication
            X509v3 Key Usage: 
                Digital Signature
    Signature Algorithm: sha1WithRSAEncryption
        26:1f:bd:8e:23:f8:0a:54:5d:f5:fc:d2:f8:5f:50:e1:94:d7:
        10:a8:4a:52:01:a6:b0:fc:e1:c1:d6:14:0f:44:f4:68:9c:66:
        3c:b4:d2:bb:ba:1b:bb:01:24:96:5b:c7:cc:1e:83:a4:b8:6d:
        19:cd:7d:ef:67:f0:b0:2f:71:66:8e:9c:ed:9e:74:9d:89:80:
        9c:4a:f7:d4:84:ae:7e:44:9a:a7:e5:bf:96:74:a5:1c:b2:34:
        fb:b8:f8:4c:e4:12:a7:34:c6:c1:02:09:cc:0d:a1:38:82:d3:
        c6:d4:60:19:41:a3:04:92:a0:ab:fe:ad:bc:61:bf:e0:14:5a:
        68:66
-----BEGIN CERTIFICATE-----
MIIEDTCCA3agAwIBAgICEcgwDQYJKoZIhvcNAQEFBQAwgZsxCzAJBgNVBAYTAlVT
MQswCQYDVQQIEwJOWTERMA8GA1UEBxMITmV3IFlvcmsxFTATBgNVBAoTDEJsb29t
YmVyZyBMUDETMBEGA1UECxMKQ1RPIE9mZmljZTEYMBYGA1UEAxMPQmxvb21iZXJn
IExQIENBMSYwJAYJKoZIhvcNAQkBFhdvcGVuLXRlY2hAYmxvb21iZXJnLm5ldDAe
Fw0xNTAyMjAwNjAwMDBaFw0xNTAyMjQwNjAwMDBaMIGlMQswCQYDVQQGEwJVUzEL
MAkGA1UECBMCTlkxETAPBgNVBAcTCE5ldyBZb3JrMRUwEwYDVQQKEwxCbG9vbWJl
cmcgTFAxEzARBgNVBAsTCkNUTyBPZmZpY2UxIjAgBgNVBAMUGXN0YWNzaGFja19z
cHJpbmdfMjAxNV8wMTExJjAkBgkqhkiG9w0BCQEWF29wZW4tdGVjaEBibG9vbWJl
cmcubmV0MIGfMA0GCSqGSIb3DQEBAQUAA4GNADCBiQKBgQCj8/Gfpfj4pE+uuwLe
ysFgI/9X1MKAlxH9d1BnCsaNxsFXPBt1BDUrn/XAMVH4xi/wGDfdRvUuYUi6Zr/Q
Hi4d6HgcJPkeSJWKGeFrli/nBjGEQdb5ypWjw7EjNvUEjbhdn7ZPG9RpnjXkQhsl
XlJ1vRrVl2dphSuCCG2ApkN7rQIDAQABo4IBUjCCAU4wCQYDVR0TBAIwADAtBglg
hkgBhvhCAQ0EIBYeRWFzeS1SU0EgR2VuZXJhdGVkIENlcnRpZmljYXRlMB0GA1Ud
DgQWBBTPvSdwCnBn/QN12EvKBU5weBoWUDCB0AYDVR0jBIHIMIHFgBTzIXYf2rXn
A/zt13G4HFUtfmVfFKGBoaSBnjCBmzELMAkGA1UEBhMCVVMxCzAJBgNVBAgTAk5Z
MREwDwYDVQQHEwhOZXcgWW9yazEVMBMGA1UEChMMQmxvb21iZXJnIExQMRMwEQYD
VQQLEwpDVE8gT2ZmaWNlMRgwFgYDVQQDEw9CbG9vbWJlcmcgTFAgQ0ExJjAkBgkq
hkiG9w0BCQEWF29wZW4tdGVjaEBibG9vbWJlcmcubmV0ggkAgfN6HLzG6KIwEwYD
VR0lBAwwCgYIKwYBBQUHAwIwCwYDVR0PBAQDAgeAMA0GCSqGSIb3DQEBBQUAA4GB
ACYfvY4j+ApUXfX80vhfUOGU1xCoSlIBprD84cHWFA9E9GicZjy00ru6G7sBJJZb
x8weg6S4bRnNfe9n8LAvcWaOnO2edJ2JgJxK99SErn5Emqflv5Z0pRyyNPu4+Ezk
Eqc0xsECCcwNoTiC08bUYBlBowSSoKv+rbxhv+AUWmhm
-----END CERTIFICATE-----
